; Function Attrs: nounwind uwtable
define internal noundef i32 @cff_slot_init(ptr nocapture noundef readonly %0) #4 {
  %2 = getelementptr inbounds i8, ptr %0, i64 8
  %3 = load ptr, ptr %2, align 8
  %4 = getelementptr inbounds i8, ptr %3, i64 1168
  %5 = load ptr, ptr %4, align 8
  %6 = getelementptr inbounds i8, ptr %5, i64 4952
  %7 = load ptr, ptr %6, align 8
  %.not = icmp eq ptr %7, null
  br i1 %.not, label %18, label %8

8:                                                ; preds = %1
  %9 = load ptr, ptr %0, align 8
  %10 = tail call ptr @FT_Get_Module(ptr noundef %9, ptr noundef nonnull @.str.16) #20
  %.not11 = icmp eq ptr %10, null
  br i1 %.not11, label %18, label %11

11:                                               ; preds = %8
  %12 = getelementptr inbounds i8, ptr %7, i64 16
  %13 = load ptr, ptr %12, align 8
  %14 = tail call ptr %13(ptr noundef nonnull %10) #20
  %15 = getelementptr inbounds i8, ptr %0, i64 296
  %16 = load ptr, ptr %15, align 8
  %17 = getelementptr inbounds i8, ptr %16, i64 64
  store ptr %14, ptr %17, align 8
  br label %18

18:                                               ; preds = %8, %11, %1
  ret i32 0
}